
test_uprobe:     file format elf64-x86-64


Disassembly of section .init:

0000000000001000 <_init>:
    1000:	f3 0f 1e fa          	endbr64 
    1004:	48 83 ec 08          	sub    $0x8,%rsp
    1008:	48 8b 05 d9 2f 00 00 	mov    0x2fd9(%rip),%rax        # 3fe8 <__gmon_start__@Base>
    100f:	48 85 c0             	test   %rax,%rax
    1012:	74 02                	je     1016 <_init+0x16>
    1014:	ff d0                	call   *%rax
    1016:	48 83 c4 08          	add    $0x8,%rsp
    101a:	c3                   	ret    

Disassembly of section .plt:

0000000000001020 <.plt>:
    1020:	ff 35 92 2f 00 00    	push   0x2f92(%rip)        # 3fb8 <_GLOBAL_OFFSET_TABLE_+0x8>
    1026:	f2 ff 25 93 2f 00 00 	bnd jmp *0x2f93(%rip)        # 3fc0 <_GLOBAL_OFFSET_TABLE_+0x10>
    102d:	0f 1f 00             	nopl   (%rax)
    1030:	f3 0f 1e fa          	endbr64 
    1034:	68 00 00 00 00       	push   $0x0
    1039:	f2 e9 e1 ff ff ff    	bnd jmp 1020 <_init+0x20>
    103f:	90                   	nop
    1040:	f3 0f 1e fa          	endbr64 
    1044:	68 01 00 00 00       	push   $0x1
    1049:	f2 e9 d1 ff ff ff    	bnd jmp 1020 <_init+0x20>
    104f:	90                   	nop

Disassembly of section .plt.got:

0000000000001050 <__cxa_finalize@plt>:
    1050:	f3 0f 1e fa          	endbr64 
    1054:	f2 ff 25 9d 2f 00 00 	bnd jmp *0x2f9d(%rip)        # 3ff8 <__cxa_finalize@GLIBC_2.2.5>
    105b:	0f 1f 44 00 00       	nopl   0x0(%rax,%rax,1)

Disassembly of section .plt.sec:

0000000000001060 <__stack_chk_fail@plt>:
    1060:	f3 0f 1e fa          	endbr64 
    1064:	f2 ff 25 5d 2f 00 00 	bnd jmp *0x2f5d(%rip)        # 3fc8 <__stack_chk_fail@GLIBC_2.4>
    106b:	0f 1f 44 00 00       	nopl   0x0(%rax,%rax,1)

0000000000001070 <printf@plt>:
    1070:	f3 0f 1e fa          	endbr64 
    1074:	f2 ff 25 55 2f 00 00 	bnd jmp *0x2f55(%rip)        # 3fd0 <printf@GLIBC_2.2.5>
    107b:	0f 1f 44 00 00       	nopl   0x0(%rax,%rax,1)

Disassembly of section .text:

0000000000001080 <_start>:
    1080:	f3 0f 1e fa          	endbr64 
    1084:	31 ed                	xor    %ebp,%ebp
    1086:	49 89 d1             	mov    %rdx,%r9
    1089:	5e                   	pop    %rsi
    108a:	48 89 e2             	mov    %rsp,%rdx
    108d:	48 83 e4 f0          	and    $0xfffffffffffffff0,%rsp
    1091:	50                   	push   %rax
    1092:	54                   	push   %rsp
    1093:	45 31 c0             	xor    %r8d,%r8d
    1096:	31 c9                	xor    %ecx,%ecx
    1098:	48 8d 3d b5 02 00 00 	lea    0x2b5(%rip),%rdi        # 1354 <main>
    109f:	ff 15 33 2f 00 00    	call   *0x2f33(%rip)        # 3fd8 <__libc_start_main@GLIBC_2.34>
    10a5:	f4                   	hlt    
    10a6:	66 2e 0f 1f 84 00 00 	cs nopw 0x0(%rax,%rax,1)
    10ad:	00 00 00 

00000000000010b0 <deregister_tm_clones>:
    10b0:	48 8d 3d 59 2f 00 00 	lea    0x2f59(%rip),%rdi        # 4010 <__TMC_END__>
    10b7:	48 8d 05 52 2f 00 00 	lea    0x2f52(%rip),%rax        # 4010 <__TMC_END__>
    10be:	48 39 f8             	cmp    %rdi,%rax
    10c1:	74 15                	je     10d8 <deregister_tm_clones+0x28>
    10c3:	48 8b 05 16 2f 00 00 	mov    0x2f16(%rip),%rax        # 3fe0 <_ITM_deregisterTMCloneTable@Base>
    10ca:	48 85 c0             	test   %rax,%rax
    10cd:	74 09                	je     10d8 <deregister_tm_clones+0x28>
    10cf:	ff e0                	jmp    *%rax
    10d1:	0f 1f 80 00 00 00 00 	nopl   0x0(%rax)
    10d8:	c3                   	ret    
    10d9:	0f 1f 80 00 00 00 00 	nopl   0x0(%rax)

00000000000010e0 <register_tm_clones>:
    10e0:	48 8d 3d 29 2f 00 00 	lea    0x2f29(%rip),%rdi        # 4010 <__TMC_END__>
    10e7:	48 8d 35 22 2f 00 00 	lea    0x2f22(%rip),%rsi        # 4010 <__TMC_END__>
    10ee:	48 29 fe             	sub    %rdi,%rsi
    10f1:	48 89 f0             	mov    %rsi,%rax
    10f4:	48 c1 ee 3f          	shr    $0x3f,%rsi
    10f8:	48 c1 f8 03          	sar    $0x3,%rax
    10fc:	48 01 c6             	add    %rax,%rsi
    10ff:	48 d1 fe             	sar    %rsi
    1102:	74 14                	je     1118 <register_tm_clones+0x38>
    1104:	48 8b 05 e5 2e 00 00 	mov    0x2ee5(%rip),%rax        # 3ff0 <_ITM_registerTMCloneTable@Base>
    110b:	48 85 c0             	test   %rax,%rax
    110e:	74 08                	je     1118 <register_tm_clones+0x38>
    1110:	ff e0                	jmp    *%rax
    1112:	66 0f 1f 44 00 00    	nopw   0x0(%rax,%rax,1)
    1118:	c3                   	ret    
    1119:	0f 1f 80 00 00 00 00 	nopl   0x0(%rax)

0000000000001120 <__do_global_dtors_aux>:
    1120:	f3 0f 1e fa          	endbr64 
    1124:	80 3d e5 2e 00 00 00 	cmpb   $0x0,0x2ee5(%rip)        # 4010 <__TMC_END__>
    112b:	75 2b                	jne    1158 <__do_global_dtors_aux+0x38>
    112d:	55                   	push   %rbp
    112e:	48 83 3d c2 2e 00 00 	cmpq   $0x0,0x2ec2(%rip)        # 3ff8 <__cxa_finalize@GLIBC_2.2.5>
    1135:	00 
    1136:	48 89 e5             	mov    %rsp,%rbp
    1139:	74 0c                	je     1147 <__do_global_dtors_aux+0x27>
    113b:	48 8b 3d c6 2e 00 00 	mov    0x2ec6(%rip),%rdi        # 4008 <__dso_handle>
    1142:	e8 09 ff ff ff       	call   1050 <__cxa_finalize@plt>
    1147:	e8 64 ff ff ff       	call   10b0 <deregister_tm_clones>
    114c:	c6 05 bd 2e 00 00 01 	movb   $0x1,0x2ebd(%rip)        # 4010 <__TMC_END__>
    1153:	5d                   	pop    %rbp
    1154:	c3                   	ret    
    1155:	0f 1f 00             	nopl   (%rax)
    1158:	c3                   	ret    
    1159:	0f 1f 80 00 00 00 00 	nopl   0x0(%rax)

0000000000001160 <frame_dummy>:
    1160:	f3 0f 1e fa          	endbr64 
    1164:	e9 77 ff ff ff       	jmp    10e0 <register_tm_clones>

0000000000001169 <uprobed_add1>:
    1169:	f3 0f 1e fa          	endbr64 
    116d:	55                   	push   %rbp
    116e:	48 89 e5             	mov    %rsp,%rbp
    1171:	48 83 ec 20          	sub    $0x20,%rsp
    1175:	48 89 7d f8          	mov    %rdi,-0x8(%rbp)
    1179:	89 75 f4             	mov    %esi,-0xc(%rbp)
    117c:	48 89 55 e8          	mov    %rdx,-0x18(%rbp)
    1180:	48 8b 7d e8          	mov    -0x18(%rbp),%rdi
    1184:	48 8b 75 e8          	mov    -0x18(%rbp),%rsi
    1188:	8b 55 f4             	mov    -0xc(%rbp),%edx
    118b:	48 8b 45 f8          	mov    -0x8(%rbp),%rax
    118f:	ff 75 f8             	push   -0x8(%rbp)
    1192:	48 8d 4d e8          	lea    -0x18(%rbp),%rcx
    1196:	51                   	push   %rcx
    1197:	49 89 f9             	mov    %rdi,%r9
    119a:	49 89 f0             	mov    %rsi,%r8
    119d:	89 d1                	mov    %edx,%ecx
    119f:	48 89 c2             	mov    %rax,%rdx
    11a2:	48 8d 05 ef 0e 00 00 	lea    0xeef(%rip),%rax        # 2098 <__FUNCTION__.5>
    11a9:	48 89 c6             	mov    %rax,%rsi
    11ac:	48 8d 05 55 0e 00 00 	lea    0xe55(%rip),%rax        # 2008 <_IO_stdin_used+0x8>
    11b3:	48 89 c7             	mov    %rax,%rdi
    11b6:	b8 00 00 00 00       	mov    $0x0,%eax
    11bb:	e8 b0 fe ff ff       	call   1070 <printf@plt>
    11c0:	48 83 c4 10          	add    $0x10,%rsp
    11c4:	48 8b 45 f8          	mov    -0x8(%rbp),%rax
    11c8:	c9                   	leave  
    11c9:	c3                   	ret    

00000000000011ca <uprobed_add2>:
    11ca:	f3 0f 1e fa          	endbr64 
    11ce:	55                   	push   %rbp
    11cf:	48 89 e5             	mov    %rsp,%rbp
    11d2:	48 83 ec 10          	sub    $0x10,%rsp
    11d6:	48 89 7d f8          	mov    %rdi,-0x8(%rbp)
    11da:	89 75 f4             	mov    %esi,-0xc(%rbp)
    11dd:	8b 55 f4             	mov    -0xc(%rbp),%edx
    11e0:	48 8b 45 f8          	mov    -0x8(%rbp),%rax
    11e4:	48 01 d0             	add    %rdx,%rax
    11e7:	48 89 c1             	mov    %rax,%rcx
    11ea:	8b 55 f4             	mov    -0xc(%rbp),%edx
    11ed:	48 8b 45 f8          	mov    -0x8(%rbp),%rax
    11f1:	49 89 c8             	mov    %rcx,%r8
    11f4:	89 d1                	mov    %edx,%ecx
    11f6:	48 89 c2             	mov    %rax,%rdx
    11f9:	48 8d 05 a8 0e 00 00 	lea    0xea8(%rip),%rax        # 20a8 <__FUNCTION__.4>
    1200:	48 89 c6             	mov    %rax,%rsi
    1203:	48 8d 05 23 0e 00 00 	lea    0xe23(%rip),%rax        # 202d <_IO_stdin_used+0x2d>
    120a:	48 89 c7             	mov    %rax,%rdi
    120d:	b8 00 00 00 00       	mov    $0x0,%eax
    1212:	e8 59 fe ff ff       	call   1070 <printf@plt>
    1217:	8b 55 f4             	mov    -0xc(%rbp),%edx
    121a:	48 8b 45 f8          	mov    -0x8(%rbp),%rax
    121e:	48 01 d0             	add    %rdx,%rax
    1221:	c9                   	leave  
    1222:	c3                   	ret    

0000000000001223 <uprobed_add3>:
    1223:	f3 0f 1e fa          	endbr64 
    1227:	55                   	push   %rbp
    1228:	48 89 e5             	mov    %rsp,%rbp
    122b:	48 83 ec 10          	sub    $0x10,%rsp
    122f:	48 89 7d f8          	mov    %rdi,-0x8(%rbp)
    1233:	89 75 f4             	mov    %esi,-0xc(%rbp)
    1236:	8b 55 f4             	mov    -0xc(%rbp),%edx
    1239:	48 8b 45 f8          	mov    -0x8(%rbp),%rax
    123d:	89 d1                	mov    %edx,%ecx
    123f:	48 89 c2             	mov    %rax,%rdx
    1242:	48 8d 05 6f 0e 00 00 	lea    0xe6f(%rip),%rax        # 20b8 <__FUNCTION__.3>
    1249:	48 89 c6             	mov    %rax,%rsi
    124c:	48 8d 05 f2 0d 00 00 	lea    0xdf2(%rip),%rax        # 2045 <_IO_stdin_used+0x45>
    1253:	48 89 c7             	mov    %rax,%rdi
    1256:	b8 00 00 00 00       	mov    $0x0,%eax
    125b:	e8 10 fe ff ff       	call   1070 <printf@plt>
    1260:	48 8b 45 f8          	mov    -0x8(%rbp),%rax
    1264:	89 c2                	mov    %eax,%edx
    1266:	8b 45 f4             	mov    -0xc(%rbp),%eax
    1269:	01 d0                	add    %edx,%eax
    126b:	89 05 a3 2d 00 00    	mov    %eax,0x2da3(%rip)        # 4014 <g_session>
    1271:	90                   	nop
    1272:	c9                   	leave  
    1273:	c3                   	ret    

0000000000001274 <uprobed_add4>:
    1274:	f3 0f 1e fa          	endbr64 
    1278:	55                   	push   %rbp
    1279:	48 89 e5             	mov    %rsp,%rbp
    127c:	48 83 ec 20          	sub    $0x20,%rsp
    1280:	48 89 7d f8          	mov    %rdi,-0x8(%rbp)
    1284:	89 75 f4             	mov    %esi,-0xc(%rbp)
    1287:	48 89 55 e8          	mov    %rdx,-0x18(%rbp)
    128b:	48 8b 75 f8          	mov    -0x8(%rbp),%rsi
    128f:	48 8b 4d e8          	mov    -0x18(%rbp),%rcx
    1293:	8b 55 f4             	mov    -0xc(%rbp),%edx
    1296:	48 8b 45 f8          	mov    -0x8(%rbp),%rax
    129a:	49 89 f1             	mov    %rsi,%r9
    129d:	49 89 c8             	mov    %rcx,%r8
    12a0:	89 d1                	mov    %edx,%ecx
    12a2:	48 89 c2             	mov    %rax,%rdx
    12a5:	48 8d 05 1c 0e 00 00 	lea    0xe1c(%rip),%rax        # 20c8 <__FUNCTION__.2>
    12ac:	48 89 c6             	mov    %rax,%rsi
    12af:	48 8d 05 aa 0d 00 00 	lea    0xdaa(%rip),%rax        # 2060 <_IO_stdin_used+0x60>
    12b6:	48 89 c7             	mov    %rax,%rdi
    12b9:	b8 00 00 00 00       	mov    $0x0,%eax
    12be:	e8 ad fd ff ff       	call   1070 <printf@plt>
    12c3:	48 8b 45 f8          	mov    -0x8(%rbp),%rax
    12c7:	c9                   	leave  
    12c8:	c3                   	ret    

00000000000012c9 <uprobed_add5>:
    12c9:	f3 0f 1e fa          	endbr64 
    12cd:	55                   	push   %rbp
    12ce:	48 89 e5             	mov    %rsp,%rbp
    12d1:	48 8d 55 10          	lea    0x10(%rbp),%rdx
    12d5:	48 8d 05 fc 0d 00 00 	lea    0xdfc(%rip),%rax        # 20d8 <__FUNCTION__.1>
    12dc:	48 89 c6             	mov    %rax,%rsi
    12df:	48 8d 05 99 0d 00 00 	lea    0xd99(%rip),%rax        # 207f <_IO_stdin_used+0x7f>
    12e6:	48 89 c7             	mov    %rax,%rdi
    12e9:	b8 00 00 00 00       	mov    $0x0,%eax
    12ee:	e8 7d fd ff ff       	call   1070 <printf@plt>
    12f3:	8b 45 10             	mov    0x10(%rbp),%eax
    12f6:	89 05 18 2d 00 00    	mov    %eax,0x2d18(%rip)        # 4014 <g_session>
    12fc:	90                   	nop
    12fd:	5d                   	pop    %rbp
    12fe:	c3                   	ret    

00000000000012ff <uprobed_add6>:
    12ff:	f3 0f 1e fa          	endbr64 
    1303:	55                   	push   %rbp
    1304:	48 89 e5             	mov    %rsp,%rbp
    1307:	48 83 ec 20          	sub    $0x20,%rsp
    130b:	48 89 7d f8          	mov    %rdi,-0x8(%rbp)
    130f:	89 75 f4             	mov    %esi,-0xc(%rbp)
    1312:	48 89 55 e8          	mov    %rdx,-0x18(%rbp)
    1316:	48 8b 75 f8          	mov    -0x8(%rbp),%rsi
    131a:	48 8b 4d e8          	mov    -0x18(%rbp),%rcx
    131e:	8b 55 f4             	mov    -0xc(%rbp),%edx
    1321:	48 8b 45 f8          	mov    -0x8(%rbp),%rax
    1325:	49 89 f1             	mov    %rsi,%r9
    1328:	49 89 c8             	mov    %rcx,%r8
    132b:	89 d1                	mov    %edx,%ecx
    132d:	48 89 c2             	mov    %rax,%rdx
    1330:	48 8d 05 b1 0d 00 00 	lea    0xdb1(%rip),%rax        # 20e8 <__FUNCTION__.0>
    1337:	48 89 c6             	mov    %rax,%rsi
    133a:	48 8d 05 1f 0d 00 00 	lea    0xd1f(%rip),%rax        # 2060 <_IO_stdin_used+0x60>
    1341:	48 89 c7             	mov    %rax,%rdi
    1344:	b8 00 00 00 00       	mov    $0x0,%eax
    1349:	e8 22 fd ff ff       	call   1070 <printf@plt>
    134e:	48 8b 45 f8          	mov    -0x8(%rbp),%rax
    1352:	c9                   	leave  
    1353:	c3                   	ret    

0000000000001354 <main>:
    1354:	f3 0f 1e fa          	endbr64 
    1358:	55                   	push   %rbp
    1359:	48 89 e5             	mov    %rsp,%rbp
    135c:	48 83 ec 70          	sub    $0x70,%rsp
    1360:	89 7d 9c             	mov    %edi,-0x64(%rbp)
    1363:	48 89 75 90          	mov    %rsi,-0x70(%rbp)
    1367:	64 48 8b 04 25 28 00 	mov    %fs:0x28,%rax
    136e:	00 00 
    1370:	48 89 45 f8          	mov    %rax,-0x8(%rbp)
    1374:	31 c0                	xor    %eax,%eax
    1376:	48 8d 05 14 0d 00 00 	lea    0xd14(%rip),%rax        # 2091 <_IO_stdin_used+0x91>
    137d:	48 89 45 b0          	mov    %rax,-0x50(%rbp)
    1381:	48 c7 45 b8 ff ff ff 	movq   $0xffffffffffffffff,-0x48(%rbp)
    1388:	ff 
    1389:	48 8d 45 c0          	lea    -0x40(%rbp),%rax
    138d:	48 83 c0 0c          	add    $0xc,%rax
    1391:	c7 00 61 61 61 00    	movl   $0x616161,(%rax)
    1397:	c7 45 ac 00 00 00 00 	movl   $0x0,-0x54(%rbp)
    139e:	c7 45 c0 01 00 00 00 	movl   $0x1,-0x40(%rbp)
    13a5:	c7 45 c4 0a 00 00 00 	movl   $0xa,-0x3c(%rbp)
    13ac:	c7 45 c8 7b 00 00 00 	movl   $0x7b,-0x38(%rbp)
    13b3:	be 01 00 00 00       	mov    $0x1,%esi
    13b8:	bf 04 00 00 00       	mov    $0x4,%edi
    13bd:	e8 08 fe ff ff       	call   11ca <uprobed_add2>
    13c2:	48 8b 55 b0          	mov    -0x50(%rbp),%rdx
    13c6:	48 8d 45 c0          	lea    -0x40(%rbp),%rax
    13ca:	be 03 00 00 00       	mov    $0x3,%esi
    13cf:	48 89 c7             	mov    %rax,%rdi
    13d2:	e8 92 fd ff ff       	call   1169 <uprobed_add1>
    13d7:	48 8b 55 b0          	mov    -0x50(%rbp),%rdx
    13db:	48 8d 45 c0          	lea    -0x40(%rbp),%rax
    13df:	be 03 00 00 00       	mov    $0x3,%esi
    13e4:	48 89 c7             	mov    %rax,%rdi
    13e7:	e8 7d fd ff ff       	call   1169 <uprobed_add1>
    13ec:	b8 00 00 00 00       	mov    $0x0,%eax
    13f1:	48 8b 55 f8          	mov    -0x8(%rbp),%rdx
    13f5:	64 48 2b 14 25 28 00 	sub    %fs:0x28,%rdx
    13fc:	00 00 
    13fe:	74 05                	je     1405 <main+0xb1>
    1400:	e8 5b fc ff ff       	call   1060 <__stack_chk_fail@plt>
    1405:	c9                   	leave  
    1406:	c3                   	ret    

Disassembly of section .fini:

0000000000001408 <_fini>:
    1408:	f3 0f 1e fa          	endbr64 
    140c:	48 83 ec 08          	sub    $0x8,%rsp
    1410:	48 83 c4 08          	add    $0x8,%rsp
    1414:	c3                   	ret    
